(dp0
S'train'
p1
(lp2
sS'valid'
p3
(lp4
F3.4592133904224274
aF3.414048671243362
aF2.967302091805004
aF2.8056932617327655
aF2.704620935093049
aF2.660706223388987
aF2.547191005776683
aF2.499230822130795
aF2.4672110836363204
aF2.406915462194422
aF2.380588873307659
aF2.3489464356192893
aF2.3337740470865427
aF2.3146047741352915
aF2.292777389908147
aF2.264792097725207
aF2.258104212015022
aF2.254019122554179
aF2.2741885509855044
aF2.259520164569679
as.